(dp0
S'Password'
p1
S'8ddcff3a80f4189ca1c9d4d902c3c909'
p2
sS'Home_path'
p3
S'/Users/chensiqi/Git/Alex/LessonFour/FTP_server/Folder/chensiqi/'
p4
sS'Quota'
p5
S'29764233'
p6
sS'Current_path'
p7
S'/Users/chensiqi/Git/Alex/LessonFour/FTP_server/Folder/chensiqi/'
p8
sS'Name'
p9
S'chensiqi'
p10
s.