(dp0
S'Quota'
p1
S'50000000'
p2
sS'Password'
p3
S'8ddcff3a80f4189ca1c9d4d902c3c909'
p4
sS'Home_path'
p5
S'/Users/chensiqi/Git/Alex/LessonFour/FTP_server/Folder/chensiqi1/'
p6
sS'Name'
p7
S'chensiqi1'
p8
sS'Current_path'
p9
S'/Users/chensiqi/Git/Alex/LessonFour/FTP_server/Folder/chensiqi1/'
p10
s.